target datalayout = "e-m:e-p270:32:32-p271:32:32-p272:64:64-i64:64-i128:128-f80:128-n8:16:32:64-S128"
target triple = "x86_64-unknown-linux-gnu"

%"class.std::basic_string_view" = type { i64, ptr }

@.str.9 = private unnamed_addr constant [18 x i8] c"realpath() failed\00", align 1
@_ZTISt12system_error = external constant ptr
@.str.54 = private unnamed_addr constant [11 x i8] c"posixrules\00", align 1

; Function Attrs: mustprogress nounwind uwtable
define linkonce_odr noundef i32 @_ZNSt17basic_string_viewIcSt11char_traitsIcEE10_S_compareEmm(i64 noundef %__n1, i64 noundef %__n2) #4 comdat align 2 {
entry:
  %retval = alloca i32, align 4
  %__n1.addr = alloca i64, align 8
  %__n2.addr = alloca i64, align 8
  %__diff = alloca i64, align 8
  store i64 %__n1, ptr %__n1.addr, align 8
  store i64 %__n2, ptr %__n2.addr, align 8
  %0 = load i64, ptr %__n1.addr, align 8
  %1 = load i64, ptr %__n2.addr, align 8
  %sub = sub i64 %0, %1
  store i64 %sub, ptr %__diff, align 8
  %2 = load i64, ptr %__diff, align 8
  %cmp = icmp sgt i64 %2, 2147483647
  br i1 %cmp, label %if.then, label %if.end

if.then:                                          ; preds = %entry
  store i32 2147483647, ptr %retval, align 4
  br label %return

if.end:                                           ; preds = %entry
  %3 = load i64, ptr %__diff, align 8
  %cmp1 = icmp slt i64 %3, -2147483648
  br i1 %cmp1, label %if.then2, label %if.end3

if.then2:                                         ; preds = %if.end
  store i32 -2147483648, ptr %retval, align 4
  br label %return

if.end3:                                          ; preds = %if.end
  %4 = load i64, ptr %__diff, align 8
  %conv = trunc i64 %4 to i32
  store i32 %conv, ptr %retval, align 4
  br label %return

return:                                           ; preds = %if.end3, %if.then2, %if.then
  %5 = load i32, ptr %retval, align 4
  ret i32 %5
}

; Function Attrs: mustprogress nounwind uwtable
define linkonce_odr noundef i32 @_ZNSt11char_traitsIcE7compareEPKcS2_m(ptr noundef %__s1, ptr noundef %__s2, i64 noundef %__n) #4 comdat align 2 {
entry:
  %retval = alloca i32, align 4
  %__s1.addr = alloca ptr, align 8
  %__s2.addr = alloca ptr, align 8
  %__n.addr = alloca i64, align 8
  store ptr %__s1, ptr %__s1.addr, align 8
  store ptr %__s2, ptr %__s2.addr, align 8
  store i64 %__n, ptr %__n.addr, align 8
  %0 = load i64, ptr %__n.addr, align 8
  %cmp = icmp eq i64 %0, 0
  br i1 %cmp, label %if.then, label %if.end

if.then:                                          ; preds = %entry
  store i32 0, ptr %retval, align 4
  br label %return

if.end:                                           ; preds = %entry
  %1 = load ptr, ptr %__s1.addr, align 8
  %2 = load ptr, ptr %__s2.addr, align 8
  %3 = load i64, ptr %__n.addr, align 8
  %call = call i32 @memcmp(ptr noundef %1, ptr noundef %2, i64 noundef %3) #3
  store i32 %call, ptr %retval, align 4
  br label %return

return:                                           ; preds = %if.end, %if.then
  %4 = load i32, ptr %retval, align 4
  ret i32 %4
}

; Function Attrs: mustprogress nounwind uwtable
define linkonce_odr noundef nonnull align 8 dereferenceable(8) ptr @_ZSt3minImERKT_S2_S2_(ptr noundef nonnull align 8 dereferenceable(8) %__a, ptr noundef nonnull align 8 dereferenceable(8) %__b) #4 comdat {
entry:
  %retval = alloca ptr, align 8
  %__a.addr = alloca ptr, align 8
  %__b.addr = alloca ptr, align 8
  store ptr %__a, ptr %__a.addr, align 8
  store ptr %__b, ptr %__b.addr, align 8
  %0 = load ptr, ptr %__b.addr, align 8
  %1 = load i64, ptr %0, align 8
  %2 = load ptr, ptr %__a.addr, align 8
  %3 = load i64, ptr %2, align 8
  %cmp = icmp ult i64 %1, %3
  br i1 %cmp, label %if.then, label %if.end

if.then:                                          ; preds = %entry
  %4 = load ptr, ptr %__b.addr, align 8
  store ptr %4, ptr %retval, align 8
  br label %return

if.end:                                           ; preds = %entry
  %5 = load ptr, ptr %__a.addr, align 8
  store ptr %5, ptr %retval, align 8
  br label %return

return:                                           ; preds = %if.end, %if.then
  %6 = load ptr, ptr %retval, align 8
  ret ptr %6
}

; Function Attrs: mustprogress nounwind uwtable
define linkonce_odr noundef i32 @_ZNKSt17basic_string_viewIcSt11char_traitsIcEE7compareES2_(ptr noundef nonnull align 8 dereferenceable(16) %this, i64 %__str.coerce0, ptr %__str.coerce1) #4 comdat align 2 personality ptr @__gxx_personality_v0 {
entry:
  %__str = alloca %"class.std::basic_string_view", align 8
  %this.addr = alloca ptr, align 8
  %__rlen = alloca i64, align 8
  %__ret = alloca i32, align 4
  %0 = getelementptr inbounds { i64, ptr }, ptr %__str, i32 0, i32 0
  store i64 %__str.coerce0, ptr %0, align 8
  %1 = getelementptr inbounds { i64, ptr }, ptr %__str, i32 0, i32 1
  store ptr %__str.coerce1, ptr %1, align 8
  store ptr %this, ptr %this.addr, align 8
  %this1 = load ptr, ptr %this.addr, align 8
  %_M_len = getelementptr inbounds %"class.std::basic_string_view", ptr %this1, i32 0, i32 0
  %_M_len2 = getelementptr inbounds %"class.std::basic_string_view", ptr %__str, i32 0, i32 0
  %call = call noundef nonnull align 8 dereferenceable(8) ptr @_ZSt3minImERKT_S2_S2_(ptr noundef nonnull align 8 dereferenceable(8) %_M_len, ptr noundef nonnull align 8 dereferenceable(8) %_M_len2)
  %2 = load i64, ptr %call, align 8
  store i64 %2, ptr %__rlen, align 8
  %_M_str = getelementptr inbounds %"class.std::basic_string_view", ptr %this1, i32 0, i32 1
  %3 = load ptr, ptr %_M_str, align 8
  %_M_str3 = getelementptr inbounds %"class.std::basic_string_view", ptr %__str, i32 0, i32 1
  %4 = load ptr, ptr %_M_str3, align 8
  %5 = load i64, ptr %__rlen, align 8
  %call4 = invoke noundef i32 @_ZNSt11char_traitsIcE7compareEPKcS2_m(ptr noundef %3, ptr noundef %4, i64 noundef %5)
          to label %invoke.cont unwind label %terminate.lpad

invoke.cont:                                      ; preds = %entry
  store i32 %call4, ptr %__ret, align 4
  %6 = load i32, ptr %__ret, align 4
  %cmp = icmp eq i32 %6, 0
  br i1 %cmp, label %if.then, label %if.end

if.then:                                          ; preds = %invoke.cont
  %_M_len5 = getelementptr inbounds %"class.std::basic_string_view", ptr %this1, i32 0, i32 0
  %7 = load i64, ptr %_M_len5, align 8
  %_M_len6 = getelementptr inbounds %"class.std::basic_string_view", ptr %__str, i32 0, i32 0
  %8 = load i64, ptr %_M_len6, align 8
  %call7 = call noundef i32 @_ZNSt17basic_string_viewIcSt11char_traitsIcEE10_S_compareEmm(i64 noundef %7, i64 noundef %8) #3
  store i32 %call7, ptr %__ret, align 4
  br label %if.end

if.end:                                           ; preds = %if.then, %invoke.cont
  %9 = load i32, ptr %__ret, align 4
  ret i32 %9

terminate.lpad:                                   ; preds = %entry
  %10 = landingpad { ptr, i32 }
          catch ptr null
  %11 = extractvalue { ptr, i32 } %10, 0
  call void @__clang_call_terminate(ptr %11) #19
  unreachable
}

; Function Attrs: mustprogress nounwind uwtable
define linkonce_odr noundef i64 @_ZNKSt17basic_string_viewIcSt11char_traitsIcEE4sizeEv(ptr noundef nonnull align 8 dereferenceable(16) %this) #4 comdat align 2 {
entry:
  %this.addr = alloca ptr, align 8
  store ptr %this, ptr %this.addr, align 8
  %this1 = load ptr, ptr %this.addr, align 8
  %_M_len = getelementptr inbounds %"class.std::basic_string_view", ptr %this1, i32 0, i32 0
  %0 = load i64, ptr %_M_len, align 8
  ret i64 %0
}

; Function Attrs: mustprogress nounwind uwtable
define linkonce_odr noundef zeroext i1 @_ZSteqIcSt11char_traitsIcEEbSt17basic_string_viewIT_T0_ES5_(i64 %__x.coerce0, ptr %__x.coerce1, i64 %__y.coerce0, ptr %__y.coerce1) #4 comdat {
entry:
  %__x = alloca %"class.std::basic_string_view", align 8
  %__y = alloca %"class.std::basic_string_view", align 8
  %agg.tmp = alloca %"class.std::basic_string_view", align 8
  %0 = getelementptr inbounds { i64, ptr }, ptr %__x, i32 0, i32 0
  store i64 %__x.coerce0, ptr %0, align 8
  %1 = getelementptr inbounds { i64, ptr }, ptr %__x, i32 0, i32 1
  store ptr %__x.coerce1, ptr %1, align 8
  %2 = getelementptr inbounds { i64, ptr }, ptr %__y, i32 0, i32 0
  store i64 %__y.coerce0, ptr %2, align 8
  %3 = getelementptr inbounds { i64, ptr }, ptr %__y, i32 0, i32 1
  store ptr %__y.coerce1, ptr %3, align 8
  %call = call noundef i64 @_ZNKSt17basic_string_viewIcSt11char_traitsIcEE4sizeEv(ptr noundef nonnull align 8 dereferenceable(16) %__x) #3
  %call1 = call noundef i64 @_ZNKSt17basic_string_viewIcSt11char_traitsIcEE4sizeEv(ptr noundef nonnull align 8 dereferenceable(16) %__y) #3
  %cmp = icmp eq i64 %call, %call1
  br i1 %cmp, label %land.rhs, label %land.end

land.rhs:                                         ; preds = %entry
  call void @llvm.memcpy.p0.p0.i64(ptr align 8 %agg.tmp, ptr align 8 %__y, i64 16, i1 false)
  %4 = getelementptr inbounds { i64, ptr }, ptr %agg.tmp, i32 0, i32 0
  %5 = load i64, ptr %4, align 8
  %6 = getelementptr inbounds { i64, ptr }, ptr %agg.tmp, i32 0, i32 1
  %7 = load ptr, ptr %6, align 8
  %call2 = call noundef i32 @_ZNKSt17basic_string_viewIcSt11char_traitsIcEE7compareES2_(ptr noundef nonnull align 8 dereferenceable(16) %__x, i64 %5, ptr %7) #3
  %cmp3 = icmp eq i32 %call2, 0
  br label %land.end

land.end:                                         ; preds = %land.rhs, %entry
  %8 = phi i1 [ false, %entry ], [ %cmp3, %land.rhs ]
  ret i1 %8
}

; Function Attrs: noreturn nounwind uwtable
define linkonce_odr hidden void @__clang_call_terminate(ptr noundef %0) #11 comdat {
  %2 = call ptr @__cxa_begin_catch(ptr %0) #3
  call void @_ZSt9terminatev() #19
  unreachable
}

; Function Attrs: mustprogress nounwind uwtable
define linkonce_odr noundef i64 @_ZNSt11char_traitsIcE6lengthEPKc(ptr noundef %__s) #4 comdat align 2 {
entry:
  %__s.addr = alloca ptr, align 8
  store ptr %__s, ptr %__s.addr, align 8
  %0 = load ptr, ptr %__s.addr, align 8
  %call = call i64 @strlen(ptr noundef %0) #3
  ret i64 %call
}

; Function Attrs: mustprogress nounwind uwtable
define linkonce_odr noundef zeroext i1 @_ZStneIcSt11char_traitsIcEEbSt17basic_string_viewIT_T0_ENSt15__type_identityIS5_E4typeE(i64 %__x.coerce0, ptr %__x.coerce1, i64 %__y.coerce0, ptr %__y.coerce1) #4 comdat {
entry:
  %__x = alloca %"class.std::basic_string_view", align 8
  %__y = alloca %"class.std::basic_string_view", align 8
  %agg.tmp = alloca %"class.std::basic_string_view", align 8
  %agg.tmp1 = alloca %"class.std::basic_string_view", align 8
  %0 = getelementptr inbounds { i64, ptr }, ptr %__x, i32 0, i32 0
  store i64 %__x.coerce0, ptr %0, align 8
  %1 = getelementptr inbounds { i64, ptr }, ptr %__x, i32 0, i32 1
  store ptr %__x.coerce1, ptr %1, align 8
  %2 = getelementptr inbounds { i64, ptr }, ptr %__y, i32 0, i32 0
  store i64 %__y.coerce0, ptr %2, align 8
  %3 = getelementptr inbounds { i64, ptr }, ptr %__y, i32 0, i32 1
  store ptr %__y.coerce1, ptr %3, align 8
  call void @llvm.memcpy.p0.p0.i64(ptr align 8 %agg.tmp, ptr align 8 %__x, i64 16, i1 false)
  call void @llvm.memcpy.p0.p0.i64(ptr align 8 %agg.tmp1, ptr align 8 %__y, i64 16, i1 false)
  %4 = getelementptr inbounds { i64, ptr }, ptr %agg.tmp, i32 0, i32 0
  %5 = load i64, ptr %4, align 8
  %6 = getelementptr inbounds { i64, ptr }, ptr %agg.tmp, i32 0, i32 1
  %7 = load ptr, ptr %6, align 8
  %8 = getelementptr inbounds { i64, ptr }, ptr %agg.tmp1, i32 0, i32 0
  %9 = load i64, ptr %8, align 8
  %10 = getelementptr inbounds { i64, ptr }, ptr %agg.tmp1, i32 0, i32 1
  %11 = load ptr, ptr %10, align 8
  %call = call noundef zeroext i1 @_ZSteqIcSt11char_traitsIcEEbSt17basic_string_viewIT_T0_ES5_(i64 %5, ptr %7, i64 %9, ptr %11) #3
  %lnot = xor i1 %call, true
  ret i1 %lnot
}

; Function Attrs: mustprogress nounwind uwtable
define linkonce_odr void @_ZNSt17basic_string_viewIcSt11char_traitsIcEEC2EPKc(ptr noundef nonnull align 8 dereferenceable(16) %this, ptr noundef nonnull %__str) unnamed_addr #4 comdat align 2 personality ptr @__gxx_personality_v0 {
entry:
  %this.addr = alloca ptr, align 8
  %__str.addr = alloca ptr, align 8
  store ptr %this, ptr %this.addr, align 8
  store ptr %__str, ptr %__str.addr, align 8
  %this1 = load ptr, ptr %this.addr, align 8
  %_M_len = getelementptr inbounds %"class.std::basic_string_view", ptr %this1, i32 0, i32 0
  %0 = load ptr, ptr %__str.addr, align 8
  %call = invoke noundef i64 @_ZNSt11char_traitsIcE6lengthEPKc(ptr noundef %0)
          to label %invoke.cont unwind label %terminate.lpad

invoke.cont:                                      ; preds = %entry
  store i64 %call, ptr %_M_len, align 8
  %_M_str = getelementptr inbounds %"class.std::basic_string_view", ptr %this1, i32 0, i32 1
  %1 = load ptr, ptr %__str.addr, align 8
  store ptr %1, ptr %_M_str, align 8
  ret void

terminate.lpad:                                   ; preds = %entry
  %2 = landingpad { ptr, i32 }
          catch ptr null
  %3 = extractvalue { ptr, i32 } %2, 0
  call void @__clang_call_terminate(ptr %3) #19
  unreachable
}

; Function Attrs: mustprogress uwtable
define internal noundef zeroext i1 @_ZN14arrow_vendored4dateL14sniff_realpathEPKc(ptr noundef %timezone) #7 personality ptr @__gxx_personality_v0 {
entry:
  %timezone.addr = alloca ptr, align 8
  %rp = alloca [4097 x i8], align 16
  %exn.slot = alloca ptr, align 8
  %ehselector.slot = alloca i32, align 4
  %result = alloca %"class.std::basic_string_view", align 8
  %agg.tmp = alloca %"class.std::basic_string_view", align 8
  %agg.tmp5 = alloca %"class.std::basic_string_view", align 8
  store ptr %timezone, ptr %timezone.addr, align 8
  call void @llvm.memset.p0.i64(ptr align 16 %rp, i8 0, i64 4097, i1 false)
  %0 = load ptr, ptr %timezone.addr, align 8
  %arraydecay = getelementptr inbounds [4097 x i8], ptr %rp, i64 0, i64 0
  %call = call ptr @realpath(ptr noundef %0, ptr noundef %arraydecay) #3
  %cmp = icmp eq ptr %call, null
  br i1 %cmp, label %if.then, label %if.end

if.then:                                          ; preds = %entry
  %exception = call ptr @__cxa_allocate_exception(i64 32) #3
  %call1 = call ptr @__errno_location() #21
  %1 = load i32, ptr %call1, align 4
  %call2 = call noundef nonnull align 8 dereferenceable(8) ptr @_ZNSt3_V215system_categoryEv() #21
  invoke void @_ZNSt12system_errorC2EiRKNSt3_V214error_categoryEPKc(ptr noundef nonnull align 8 dereferenceable(32) %exception, i32 noundef %1, ptr noundef nonnull align 8 dereferenceable(8) %call2, ptr noundef @.str.9)
          to label %invoke.cont unwind label %lpad

invoke.cont:                                      ; preds = %if.then
  call void @__cxa_throw(ptr %exception, ptr @_ZTISt12system_error, ptr @_ZNSt12system_errorD1Ev) #20
  unreachable

lpad:                                             ; preds = %if.then
  %2 = landingpad { ptr, i32 }
          cleanup
  %3 = extractvalue { ptr, i32 } %2, 0
  store ptr %3, ptr %exn.slot, align 8
  %4 = extractvalue { ptr, i32 } %2, 1
  store i32 %4, ptr %ehselector.slot, align 4
  call void @__cxa_free_exception(ptr %exception) #3
  br label %eh.resume

if.end:                                           ; preds = %entry
  %arraydecay3 = getelementptr inbounds [4097 x i8], ptr %rp, i64 0, i64 0
  %call4 = call { i64, ptr } @_ZN14arrow_vendored4dateL15extract_tz_nameEPKc(ptr noundef %arraydecay3)
  %5 = getelementptr inbounds { i64, ptr }, ptr %result, i32 0, i32 0
  %6 = extractvalue { i64, ptr } %call4, 0
  store i64 %6, ptr %5, align 8
  %7 = getelementptr inbounds { i64, ptr }, ptr %result, i32 0, i32 1
  %8 = extractvalue { i64, ptr } %call4, 1
  store ptr %8, ptr %7, align 8
  call void @llvm.memcpy.p0.p0.i64(ptr align 8 %agg.tmp, ptr align 8 %result, i64 16, i1 false)
  call void @_ZNSt17basic_string_viewIcSt11char_traitsIcEEC2EPKc(ptr noundef nonnull align 8 dereferenceable(16) %agg.tmp5, ptr noundef @.str.54) #3
  %9 = getelementptr inbounds { i64, ptr }, ptr %agg.tmp, i32 0, i32 0
  %10 = load i64, ptr %9, align 8
  %11 = getelementptr inbounds { i64, ptr }, ptr %agg.tmp, i32 0, i32 1
  %12 = load ptr, ptr %11, align 8
  %13 = getelementptr inbounds { i64, ptr }, ptr %agg.tmp5, i32 0, i32 0
  %14 = load i64, ptr %13, align 8
  %15 = getelementptr inbounds { i64, ptr }, ptr %agg.tmp5, i32 0, i32 1
  %16 = load ptr, ptr %15, align 8
  %call6 = call noundef zeroext i1 @_ZStneIcSt11char_traitsIcEEbSt17basic_string_viewIT_T0_ENSt15__type_identityIS5_E4typeE(i64 %10, ptr %12, i64 %14, ptr %16) #3
  ret i1 %call6

eh.resume:                                        ; preds = %lpad
  %exn = load ptr, ptr %exn.slot, align 8
  %sel = load i32, ptr %ehselector.slot, align 4
  %lpad.val = insertvalue { ptr, i32 } poison, ptr %exn, 0
  %lpad.val7 = insertvalue { ptr, i32 } %lpad.val, i32 %sel, 1
  resume { ptr, i32 } %lpad.val7
}